target datalayout = "e-m:e-p270:32:32-p271:32:32-p272:64:64-i64:64-i128:128-f80:128-n8:16:32:64-S128"
target triple = "x86_64-pc-linux-gnu"

; Function Attrs: mustprogress nounwind uwtable
define internal noundef i32 @_ZN12_GLOBAL__N_115DffLegalizePass13flip_initmaskEi(ptr noundef nonnull align 8 dereferenceable(2536) %0, i32 noundef %1) #5 align 2 {
  %3 = alloca ptr, align 8
  %4 = alloca i32, align 4
  %5 = alloca i32, align 4
  store ptr %0, ptr %3, align 8
  store i32 %1, ptr %4, align 4
  %6 = load i32, ptr %4, align 4
  %7 = and i32 %6, 1
  store i32 %7, ptr %5, align 4
  %8 = load i32, ptr %4, align 4
  %9 = and i32 %8, 2
  %10 = icmp ne i32 %9, 0
  br i1 %10, label %11, label %14

11:                                               ; preds = %2
  %12 = load i32, ptr %5, align 4
  %13 = or i32 %12, 4
  store i32 %13, ptr %5, align 4
  br label %14

14:                                               ; preds = %11, %2
  %15 = load i32, ptr %4, align 4
  %16 = and i32 %15, 4
  %17 = icmp ne i32 %16, 0
  br i1 %17, label %18, label %21

18:                                               ; preds = %14
  %19 = load i32, ptr %5, align 4
  %20 = or i32 %19, 2
  store i32 %20, ptr %5, align 4
  br label %21

21:                                               ; preds = %18, %14
  %22 = load i32, ptr %4, align 4
  %23 = and i32 %22, 16
  %24 = icmp ne i32 %23, 0
  br i1 %24, label %25, label %28

25:                                               ; preds = %21
  %26 = load i32, ptr %5, align 4
  %27 = or i32 %26, 256
  store i32 %27, ptr %5, align 4
  br label %28

28:                                               ; preds = %25, %21
  %29 = load i32, ptr %4, align 4
  %30 = and i32 %29, 32
  %31 = icmp ne i32 %30, 0
  br i1 %31, label %32, label %35

32:                                               ; preds = %28
  %33 = load i32, ptr %5, align 4
  %34 = or i32 %33, 1024
  store i32 %34, ptr %5, align 4
  br label %35

35:                                               ; preds = %32, %28
  %36 = load i32, ptr %4, align 4
  %37 = and i32 %36, 64
  %38 = icmp ne i32 %37, 0
  br i1 %38, label %39, label %42

39:                                               ; preds = %35
  %40 = load i32, ptr %5, align 4
  %41 = or i32 %40, 512
  store i32 %41, ptr %5, align 4
  br label %42

42:                                               ; preds = %39, %35
  %43 = load i32, ptr %4, align 4
  %44 = and i32 %43, 256
  %45 = icmp ne i32 %44, 0
  br i1 %45, label %46, label %49

46:                                               ; preds = %42
  %47 = load i32, ptr %5, align 4
  %48 = or i32 %47, 16
  store i32 %48, ptr %5, align 4
  br label %49

49:                                               ; preds = %46, %42
  %50 = load i32, ptr %4, align 4
  %51 = and i32 %50, 512
  %52 = icmp ne i32 %51, 0
  br i1 %52, label %53, label %56

53:                                               ; preds = %49
  %54 = load i32, ptr %5, align 4
  %55 = or i32 %54, 64
  store i32 %55, ptr %5, align 4
  br label %56

56:                                               ; preds = %53, %49
  %57 = load i32, ptr %4, align 4
  %58 = and i32 %57, 1024
  %59 = icmp ne i32 %58, 0
  br i1 %59, label %60, label %63

60:                                               ; preds = %56
  %61 = load i32, ptr %5, align 4
  %62 = or i32 %61, 32
  store i32 %62, ptr %5, align 4
  br label %63

63:                                               ; preds = %60, %56
  %64 = load i32, ptr %5, align 4
  ret i32 %64
}