; Function Attrs: mustprogress nofree norecurse nosync nounwind willreturn memory(none) uwtable
define internal fastcc noundef i32 @_ZN12_GLOBAL__N_115DffLegalizePass13flip_initmaskEi(i32 noundef %0) unnamed_addr #11 align 2 {
  %2 = and i32 %0, 1
  %3 = shl i32 %0, 1
  %4 = and i32 %3, 4
  %spec.select = or disjoint i32 %4, %2
  %5 = lshr i32 %0, 1
  %6 = and i32 %5, 2
  %.1 = or disjoint i32 %spec.select, %6
  %7 = shl i32 %0, 4
  %8 = and i32 %7, 256
  %.2 = or disjoint i32 %.1, %8
  %9 = shl i32 %0, 5
  %10 = and i32 %9, 1024
  %.3 = or disjoint i32 %.2, %10
  %11 = shl i32 %0, 3
  %12 = and i32 %11, 512
  %.4 = or disjoint i32 %.3, %12
  %13 = lshr i32 %0, 4
  %14 = and i32 %13, 16
  %.5 = or i32 %.4, %14
  %15 = lshr i32 %0, 3
  %16 = and i32 %15, 64
  %.6 = or i32 %.5, %16
  %17 = lshr i32 %0, 5
  %18 = and i32 %17, 32
  %.7 = or i32 %.6, %18
  ret i32 %.7
}